target datalayout = "e-m:e-p270:32:32-p271:32:32-p272:64:64-i64:64-i128:128-f80:128-n8:16:32:64-S128"
target triple = "x86_64-pc-linux-gnu"

%"class.pxrInternal_v0_24__pxrReserved__::VtValue" = type { %"union.std::aligned_storage<8, 8>::type", %"class.pxrInternal_v0_24__pxrReserved__::TfPointerAndBits.0" }
%"union.std::aligned_storage<8, 8>::type" = type { [8 x i8] }
%"class.pxrInternal_v0_24__pxrReserved__::TfPointerAndBits.0" = type { ptr }

@_ZZNK32pxrInternal_v0_24__pxrReserved__11NdrProperty24GetDefaultValueAsSdfTypeEvE10emptyValue = internal global ptr null, align 8
@_ZGVZNK32pxrInternal_v0_24__pxrReserved__11NdrProperty24GetDefaultValueAsSdfTypeEvE10emptyValue = internal global i64 0, align 8
@_ZGRZNK32pxrInternal_v0_24__pxrReserved__11NdrProperty24GetDefaultValueAsSdfTypeEvE10emptyValue_ = internal global %"class.pxrInternal_v0_24__pxrReserved__::VtValue" zeroinitializer, align 8
@__dso_handle = external hidden global i8

; Function Attrs: mustprogress nounwind uwtable
define linkonce_odr void @_ZN32pxrInternal_v0_24__pxrReserved__16TfPointerAndBitsIKNS_7VtValue9_TypeInfoEEC2Ev(ptr noundef nonnull align 8 dereferenceable(8) %0) unnamed_addr #1 comdat align 2 {
  %2 = alloca ptr, align 8
  store ptr %0, ptr %2, align 8
  %3 = load ptr, ptr %2, align 8
  %4 = getelementptr inbounds nuw %"class.pxrInternal_v0_24__pxrReserved__::TfPointerAndBits.0", ptr %3, i32 0, i32 0
  store ptr null, ptr %4, align 8
  ret void
}

; Function Attrs: mustprogress nounwind uwtable
define linkonce_odr void @_ZN32pxrInternal_v0_24__pxrReserved__7VtValueC2Ev(ptr noundef nonnull align 8 dereferenceable(16) %0) unnamed_addr #1 comdat align 2 {
  %2 = alloca ptr, align 8
  store ptr %0, ptr %2, align 8
  %3 = load ptr, ptr %2, align 8
  %4 = getelementptr inbounds nuw %"class.pxrInternal_v0_24__pxrReserved__::VtValue", ptr %3, i32 0, i32 1
  call void @_ZN32pxrInternal_v0_24__pxrReserved__16TfPointerAndBitsIKNS_7VtValue9_TypeInfoEEC2Ev(ptr noundef nonnull align 8 dereferenceable(8) %4) #4
  ret void
}

; Function Attrs: mustprogress uwtable
define noundef nonnull align 8 dereferenceable(16) ptr @_ZNK32pxrInternal_v0_24__pxrReserved__11NdrProperty24GetDefaultValueAsSdfTypeEv(ptr noundef nonnull align 8 dereferenceable(120) %0) unnamed_addr #0 align 2 personality ptr @__gxx_personality_v0 {
  %2 = alloca ptr, align 8
  %3 = alloca ptr, align 8
  %4 = alloca i32, align 4
  store ptr %0, ptr %2, align 8
  %5 = load atomic i8, ptr @_ZGVZNK32pxrInternal_v0_24__pxrReserved__11NdrProperty24GetDefaultValueAsSdfTypeEvE10emptyValue acquire, align 8
  %6 = icmp eq i8 %5, 0
  br i1 %6, label %7, label %13, !prof !4

7:                                                ; preds = %1
  %8 = call i32 @__cxa_guard_acquire(ptr @_ZGVZNK32pxrInternal_v0_24__pxrReserved__11NdrProperty24GetDefaultValueAsSdfTypeEvE10emptyValue) #4
  %9 = icmp ne i32 %8, 0
  br i1 %9, label %10, label %13

10:                                               ; preds = %7
  invoke void @_ZN32pxrInternal_v0_24__pxrReserved__7VtValueC2Ev(ptr noundef nonnull align 8 dereferenceable(16) @_ZGRZNK32pxrInternal_v0_24__pxrReserved__11NdrProperty24GetDefaultValueAsSdfTypeEvE10emptyValue_)
          to label %11 unwind label %15

11:                                               ; preds = %10
  %12 = call i32 @__cxa_atexit(ptr @_ZN32pxrInternal_v0_24__pxrReserved__7VtValueD2Ev, ptr @_ZGRZNK32pxrInternal_v0_24__pxrReserved__11NdrProperty24GetDefaultValueAsSdfTypeEvE10emptyValue_, ptr @__dso_handle) #4
  store ptr @_ZGRZNK32pxrInternal_v0_24__pxrReserved__11NdrProperty24GetDefaultValueAsSdfTypeEvE10emptyValue_, ptr @_ZZNK32pxrInternal_v0_24__pxrReserved__11NdrProperty24GetDefaultValueAsSdfTypeEvE10emptyValue, align 8
  call void @__cxa_guard_release(ptr @_ZGVZNK32pxrInternal_v0_24__pxrReserved__11NdrProperty24GetDefaultValueAsSdfTypeEvE10emptyValue) #4
  br label %13

13:                                               ; preds = %11, %7, %1
  %14 = load ptr, ptr @_ZZNK32pxrInternal_v0_24__pxrReserved__11NdrProperty24GetDefaultValueAsSdfTypeEvE10emptyValue, align 8
  ret ptr %14

15:                                               ; preds = %10
  %16 = landingpad { ptr, i32 }
          cleanup
  %17 = extractvalue { ptr, i32 } %16, 0
  store ptr %17, ptr %3, align 8
  %18 = extractvalue { ptr, i32 } %16, 1
  store i32 %18, ptr %4, align 4
  call void @__cxa_guard_abort(ptr @_ZGVZNK32pxrInternal_v0_24__pxrReserved__11NdrProperty24GetDefaultValueAsSdfTypeEvE10emptyValue) #4
  br label %19

19:                                               ; preds = %15
  %20 = load ptr, ptr %3, align 8
  %21 = load i32, ptr %4, align 4
  %22 = insertvalue { ptr, i32 } poison, ptr %20, 0
  %23 = insertvalue { ptr, i32 } %22, i32 %21, 1
  resume { ptr, i32 } %23
}