; Function Attrs: mustprogress nofree nounwind uwtable
define noundef nonnull align 8 dereferenceable(16) ptr @_ZNK32pxrInternal_v0_24__pxrReserved__11NdrProperty24GetDefaultValueAsSdfTypeEv(ptr nocapture nonnull readnone align 8 %0) unnamed_addr #5 align 2 personality ptr @__gxx_personality_v0 {
  %2 = load atomic i8, ptr @_ZGVZNK32pxrInternal_v0_24__pxrReserved__11NdrProperty24GetDefaultValueAsSdfTypeEvE10emptyValue acquire, align 8
  %3 = icmp eq i8 %2, 0
  br i1 %3, label %4, label %8, !prof !9

4:                                                ; preds = %1
  %5 = tail call i32 @__cxa_guard_acquire(ptr nonnull @_ZGVZNK32pxrInternal_v0_24__pxrReserved__11NdrProperty24GetDefaultValueAsSdfTypeEvE10emptyValue) #16
  %.not = icmp eq i32 %5, 0
  br i1 %.not, label %8, label %6

6:                                                ; preds = %4
  store ptr null, ptr getelementptr inbounds nuw (i8, ptr @_ZGRZNK32pxrInternal_v0_24__pxrReserved__11NdrProperty24GetDefaultValueAsSdfTypeEvE10emptyValue_, i64 8), align 8
  %7 = tail call i32 @__cxa_atexit(ptr nonnull @_ZN32pxrInternal_v0_24__pxrReserved__7VtValueD2Ev, ptr nonnull @_ZGRZNK32pxrInternal_v0_24__pxrReserved__11NdrProperty24GetDefaultValueAsSdfTypeEvE10emptyValue_, ptr nonnull @__dso_handle) #16
  store ptr @_ZGRZNK32pxrInternal_v0_24__pxrReserved__11NdrProperty24GetDefaultValueAsSdfTypeEvE10emptyValue_, ptr @_ZZNK32pxrInternal_v0_24__pxrReserved__11NdrProperty24GetDefaultValueAsSdfTypeEvE10emptyValue, align 8
  tail call void @__cxa_guard_release(ptr nonnull @_ZGVZNK32pxrInternal_v0_24__pxrReserved__11NdrProperty24GetDefaultValueAsSdfTypeEvE10emptyValue) #16
  br label %8

8:                                                ; preds = %6, %4, %1
  %9 = load ptr, ptr @_ZZNK32pxrInternal_v0_24__pxrReserved__11NdrProperty24GetDefaultValueAsSdfTypeEvE10emptyValue, align 8
  ret ptr %9
}